
PingPongLab.elf:     file format elf32-avr

Sections:
Idx Name          Size      VMA       LMA       File off  Algn
  0 .data         00000132  00800100  0000068a  0000071e  2**0
                  CONTENTS, ALLOC, LOAD, DATA
  1 .text         0000068a  00000000  00000000  00000094  2**1
                  CONTENTS, ALLOC, LOAD, READONLY, CODE
  2 .bss          00000006  00800232  00800232  00000850  2**0
                  ALLOC
  3 .comment      00000030  00000000  00000000  00000850  2**0
                  CONTENTS, READONLY
  4 .note.gnu.avr.deviceinfo 0000003c  00000000  00000000  00000880  2**2
                  CONTENTS, READONLY
  5 .debug_aranges 000000d8  00000000  00000000  000008bc  2**0
                  CONTENTS, READONLY, DEBUGGING
  6 .debug_info   00001436  00000000  00000000  00000994  2**0
                  CONTENTS, READONLY, DEBUGGING
  7 .debug_abbrev 00000939  00000000  00000000  00001dca  2**0
                  CONTENTS, READONLY, DEBUGGING
  8 .debug_line   000008f2  00000000  00000000  00002703  2**0
                  CONTENTS, READONLY, DEBUGGING
  9 .debug_frame  00000284  00000000  00000000  00002ff8  2**2
                  CONTENTS, READONLY, DEBUGGING
 10 .debug_str    00000661  00000000  00000000  0000327c  2**0
                  CONTENTS, READONLY, DEBUGGING
 11 .debug_loc    00000883  00000000  00000000  000038dd  2**0
                  CONTENTS, READONLY, DEBUGGING
 12 .debug_ranges 000000f8  00000000  00000000  00004160  2**0
                  CONTENTS, READONLY, DEBUGGING

Disassembly of section .text:

00000000 <__vectors>:
   0:	0c 94 b4 01 	jmp	0x368	; 0x368 <__ctors_end>
   4:	0c 94 d1 01 	jmp	0x3a2	; 0x3a2 <__bad_interrupt>
   8:	0c 94 d1 01 	jmp	0x3a2	; 0x3a2 <__bad_interrupt>
   c:	0c 94 d1 01 	jmp	0x3a2	; 0x3a2 <__bad_interrupt>
  10:	0c 94 d1 01 	jmp	0x3a2	; 0x3a2 <__bad_interrupt>
  14:	0c 94 d1 01 	jmp	0x3a2	; 0x3a2 <__bad_interrupt>
  18:	0c 94 d1 01 	jmp	0x3a2	; 0x3a2 <__bad_interrupt>
  1c:	0c 94 d1 01 	jmp	0x3a2	; 0x3a2 <__bad_interrupt>
  20:	0c 94 d1 01 	jmp	0x3a2	; 0x3a2 <__bad_interrupt>
  24:	0c 94 d1 01 	jmp	0x3a2	; 0x3a2 <__bad_interrupt>
  28:	0c 94 d1 01 	jmp	0x3a2	; 0x3a2 <__bad_interrupt>
  2c:	0c 94 d1 01 	jmp	0x3a2	; 0x3a2 <__bad_interrupt>
  30:	0c 94 d1 01 	jmp	0x3a2	; 0x3a2 <__bad_interrupt>
  34:	0c 94 d1 01 	jmp	0x3a2	; 0x3a2 <__bad_interrupt>
  38:	0c 94 d1 01 	jmp	0x3a2	; 0x3a2 <__bad_interrupt>
  3c:	0c 94 d1 01 	jmp	0x3a2	; 0x3a2 <__bad_interrupt>
  40:	0c 94 d1 01 	jmp	0x3a2	; 0x3a2 <__bad_interrupt>
  44:	0c 94 d1 01 	jmp	0x3a2	; 0x3a2 <__bad_interrupt>
  48:	0c 94 d1 01 	jmp	0x3a2	; 0x3a2 <__bad_interrupt>
  4c:	0c 94 d1 01 	jmp	0x3a2	; 0x3a2 <__bad_interrupt>
  50:	0c 94 d1 01 	jmp	0x3a2	; 0x3a2 <__bad_interrupt>
  54:	0c 94 d1 01 	jmp	0x3a2	; 0x3a2 <__bad_interrupt>
  58:	0c 94 d1 01 	jmp	0x3a2	; 0x3a2 <__bad_interrupt>
  5c:	0c 94 d1 01 	jmp	0x3a2	; 0x3a2 <__bad_interrupt>
  60:	0c 94 d1 01 	jmp	0x3a2	; 0x3a2 <__bad_interrupt>
  64:	0c 94 d1 01 	jmp	0x3a2	; 0x3a2 <__bad_interrupt>
  68:	0c 94 d1 01 	jmp	0x3a2	; 0x3a2 <__bad_interrupt>
  6c:	0c 94 d1 01 	jmp	0x3a2	; 0x3a2 <__bad_interrupt>

00000070 <__trampolines_end>:
	...
  78:	00 06       	cpc	r0, r16
  7a:	5f 5f       	subi	r21, 0xFF	; 255
  7c:	06 00       	.word	0x0006	; ????
  7e:	00 00       	nop
  80:	00 07       	cpc	r16, r16
  82:	07 00       	.word	0x0007	; ????
  84:	07 07       	cpc	r16, r23
  86:	00 00       	nop
  88:	14 7f       	andi	r17, 0xF4	; 244
  8a:	7f 14       	cp	r7, r15
  8c:	7f 7f       	andi	r23, 0xFF	; 255
  8e:	14 00       	.word	0x0014	; ????
  90:	24 2e       	mov	r2, r20
  92:	6b 6b       	ori	r22, 0xBB	; 187
  94:	3a 12       	cpse	r3, r26
  96:	00 00       	nop
  98:	46 66       	ori	r20, 0x66	; 102
  9a:	30 18       	sub	r3, r0
  9c:	0c 66       	ori	r16, 0x6C	; 108
  9e:	62 00       	.word	0x0062	; ????
  a0:	30 7a       	andi	r19, 0xA0	; 160
  a2:	4f 5d       	subi	r20, 0xDF	; 223
  a4:	37 7a       	andi	r19, 0xA7	; 167
  a6:	48 00       	.word	0x0048	; ????
  a8:	04 07       	cpc	r16, r20
  aa:	03 00       	.word	0x0003	; ????
  ac:	00 00       	nop
  ae:	00 00       	nop
  b0:	00 1c       	adc	r0, r0
  b2:	3e 63       	ori	r19, 0x3E	; 62
  b4:	41 00       	.word	0x0041	; ????
  b6:	00 00       	nop
  b8:	00 41       	sbci	r16, 0x10	; 16
  ba:	63 3e       	cpi	r22, 0xE3	; 227
  bc:	1c 00       	.word	0x001c	; ????
  be:	00 00       	nop
  c0:	08 2a       	or	r0, r24
  c2:	3e 1c       	adc	r3, r14
  c4:	1c 3e       	cpi	r17, 0xEC	; 236
  c6:	2a 08       	sbc	r2, r10
  c8:	08 08       	sbc	r0, r8
  ca:	3e 3e       	cpi	r19, 0xEE	; 238
  cc:	08 08       	sbc	r0, r8
  ce:	00 00       	nop
  d0:	00 a0       	ldd	r0, Z+32	; 0x20
  d2:	e0 60       	ori	r30, 0x00	; 0
  d4:	00 00       	nop
  d6:	00 00       	nop
  d8:	08 08       	sbc	r0, r8
  da:	08 08       	sbc	r0, r8
  dc:	08 08       	sbc	r0, r8
  de:	00 00       	nop
  e0:	00 00       	nop
  e2:	60 60       	ori	r22, 0x00	; 0
  e4:	00 00       	nop
  e6:	00 00       	nop
  e8:	60 30       	cpi	r22, 0x00	; 0
  ea:	18 0c       	add	r1, r8
  ec:	06 03       	mulsu	r16, r22
  ee:	01 00       	.word	0x0001	; ????
  f0:	3e 7f       	andi	r19, 0xFE	; 254
  f2:	59 4d       	sbci	r21, 0xD9	; 217
  f4:	7f 3e       	cpi	r23, 0xEF	; 239
  f6:	00 00       	nop
  f8:	42 42       	sbci	r20, 0x22	; 34
  fa:	7f 7f       	andi	r23, 0xFF	; 255
  fc:	40 40       	sbci	r20, 0x00	; 0
  fe:	00 00       	nop
 100:	62 73       	andi	r22, 0x32	; 50
 102:	59 49       	sbci	r21, 0x99	; 153
 104:	6f 66       	ori	r22, 0x6F	; 111
 106:	00 00       	nop
 108:	22 63       	ori	r18, 0x32	; 50
 10a:	49 49       	sbci	r20, 0x99	; 153
 10c:	7f 36       	cpi	r23, 0x6F	; 111
 10e:	00 00       	nop
 110:	18 1c       	adc	r1, r8
 112:	16 13       	cpse	r17, r22
 114:	7f 7f       	andi	r23, 0xFF	; 255
 116:	10 00       	.word	0x0010	; ????
 118:	27 67       	ori	r18, 0x77	; 119
 11a:	45 45       	sbci	r20, 0x55	; 85
 11c:	7d 39       	cpi	r23, 0x9D	; 157
 11e:	00 00       	nop
 120:	3c 7e       	andi	r19, 0xEC	; 236
 122:	4b 49       	sbci	r20, 0x9B	; 155
 124:	79 30       	cpi	r23, 0x09	; 9
 126:	00 00       	nop
 128:	03 63       	ori	r16, 0x33	; 51
 12a:	71 19       	sub	r23, r1
 12c:	0f 07       	cpc	r16, r31
 12e:	00 00       	nop
 130:	36 7f       	andi	r19, 0xF6	; 246
 132:	49 49       	sbci	r20, 0x99	; 153
 134:	7f 36       	cpi	r23, 0x6F	; 111
 136:	00 00       	nop
 138:	06 4f       	sbci	r16, 0xF6	; 246
 13a:	49 69       	ori	r20, 0x99	; 153
 13c:	3f 1e       	adc	r3, r31
 13e:	00 00       	nop
 140:	00 00       	nop
 142:	6c 6c       	ori	r22, 0xCC	; 204
 144:	00 00       	nop
 146:	00 00       	nop
 148:	00 a0       	ldd	r0, Z+32	; 0x20
 14a:	ec 6c       	ori	r30, 0xCC	; 204
 14c:	00 00       	nop
 14e:	00 00       	nop
 150:	08 1c       	adc	r0, r8
 152:	36 63       	ori	r19, 0x36	; 54
 154:	41 00       	.word	0x0041	; ????
 156:	00 00       	nop
 158:	14 14       	cp	r1, r4
 15a:	14 14       	cp	r1, r4
 15c:	14 14       	cp	r1, r4
 15e:	00 00       	nop
 160:	00 41       	sbci	r16, 0x10	; 16
 162:	63 36       	cpi	r22, 0x63	; 99
 164:	1c 08       	sbc	r1, r12
 166:	00 00       	nop
 168:	02 03       	mulsu	r16, r18
 16a:	51 59       	subi	r21, 0x91	; 145
 16c:	0f 06       	cpc	r0, r31
 16e:	00 00       	nop
 170:	3e 7f       	andi	r19, 0xFE	; 254
 172:	41 5d       	subi	r20, 0xD1	; 209
 174:	5d 1f       	adc	r21, r29
 176:	1e 00       	.word	0x001e	; ????
 178:	7c 7e       	andi	r23, 0xEC	; 236
 17a:	13 13       	cpse	r17, r19
 17c:	7e 7c       	andi	r23, 0xCE	; 206
 17e:	00 00       	nop
 180:	41 7f       	andi	r20, 0xF1	; 241
 182:	7f 49       	sbci	r23, 0x9F	; 159
 184:	49 7f       	andi	r20, 0xF9	; 249
 186:	36 00       	.word	0x0036	; ????
 188:	1c 3e       	cpi	r17, 0xEC	; 236
 18a:	63 41       	sbci	r22, 0x13	; 19
 18c:	41 63       	ori	r20, 0x31	; 49
 18e:	22 00       	.word	0x0022	; ????
 190:	41 7f       	andi	r20, 0xF1	; 241
 192:	7f 41       	sbci	r23, 0x1F	; 31
 194:	63 7f       	andi	r22, 0xF3	; 243
 196:	1c 00       	.word	0x001c	; ????
 198:	41 7f       	andi	r20, 0xF1	; 241
 19a:	7f 49       	sbci	r23, 0x9F	; 159
 19c:	5d 41       	sbci	r21, 0x1D	; 29
 19e:	63 00       	.word	0x0063	; ????
 1a0:	41 7f       	andi	r20, 0xF1	; 241
 1a2:	7f 49       	sbci	r23, 0x9F	; 159
 1a4:	1d 01       	movw	r2, r26
 1a6:	03 00       	.word	0x0003	; ????
 1a8:	1c 3e       	cpi	r17, 0xEC	; 236
 1aa:	63 41       	sbci	r22, 0x13	; 19
 1ac:	51 73       	andi	r21, 0x31	; 49
 1ae:	72 00       	.word	0x0072	; ????
 1b0:	7f 7f       	andi	r23, 0xFF	; 255
 1b2:	08 08       	sbc	r0, r8
 1b4:	7f 7f       	andi	r23, 0xFF	; 255
 1b6:	00 00       	nop
 1b8:	00 41       	sbci	r16, 0x10	; 16
 1ba:	7f 7f       	andi	r23, 0xFF	; 255
 1bc:	41 00       	.word	0x0041	; ????
 1be:	00 00       	nop
 1c0:	30 70       	andi	r19, 0x00	; 0
 1c2:	40 41       	sbci	r20, 0x10	; 16
 1c4:	7f 3f       	cpi	r23, 0xFF	; 255
 1c6:	01 00       	.word	0x0001	; ????
 1c8:	41 7f       	andi	r20, 0xF1	; 241
 1ca:	7f 08       	sbc	r7, r15
 1cc:	1c 77       	andi	r17, 0x7C	; 124
 1ce:	63 00       	.word	0x0063	; ????
 1d0:	41 7f       	andi	r20, 0xF1	; 241
 1d2:	7f 41       	sbci	r23, 0x1F	; 31
 1d4:	40 60       	ori	r20, 0x00	; 0
 1d6:	70 00       	.word	0x0070	; ????
 1d8:	7f 7f       	andi	r23, 0xFF	; 255
 1da:	06 0c       	add	r0, r6
 1dc:	06 7f       	andi	r16, 0xF6	; 246
 1de:	7f 00       	.word	0x007f	; ????
 1e0:	7f 7f       	andi	r23, 0xFF	; 255
 1e2:	06 0c       	add	r0, r6
 1e4:	18 7f       	andi	r17, 0xF8	; 248
 1e6:	7f 00       	.word	0x007f	; ????
 1e8:	1c 3e       	cpi	r17, 0xEC	; 236
 1ea:	63 41       	sbci	r22, 0x13	; 19
 1ec:	63 3e       	cpi	r22, 0xE3	; 227
 1ee:	1c 00       	.word	0x001c	; ????
 1f0:	41 7f       	andi	r20, 0xF1	; 241
 1f2:	7f 49       	sbci	r23, 0x9F	; 159
 1f4:	09 0f       	add	r16, r25
 1f6:	06 00       	.word	0x0006	; ????
 1f8:	1e 3f       	cpi	r17, 0xFE	; 254
 1fa:	21 71       	andi	r18, 0x11	; 17
 1fc:	7f 5e       	subi	r23, 0xEF	; 239
 1fe:	00 00       	nop
 200:	41 7f       	andi	r20, 0xF1	; 241
 202:	7f 19       	sub	r23, r15
 204:	39 6f       	ori	r19, 0xF9	; 249
 206:	46 00       	.word	0x0046	; ????
 208:	26 67       	ori	r18, 0x76	; 118
 20a:	4d 59       	subi	r20, 0x9D	; 157
 20c:	7b 32       	cpi	r23, 0x2B	; 43
 20e:	00 00       	nop
 210:	03 41       	sbci	r16, 0x13	; 19
 212:	7f 7f       	andi	r23, 0xFF	; 255
 214:	41 03       	mulsu	r20, r17
 216:	00 00       	nop
 218:	7f 7f       	andi	r23, 0xFF	; 255
 21a:	40 40       	sbci	r20, 0x00	; 0
 21c:	7f 7f       	andi	r23, 0xFF	; 255
 21e:	00 00       	nop
 220:	1f 3f       	cpi	r17, 0xFF	; 255
 222:	60 60       	ori	r22, 0x00	; 0
 224:	3f 1f       	adc	r19, r31
 226:	00 00       	nop
 228:	7f 7f       	andi	r23, 0xFF	; 255
 22a:	30 18       	sub	r3, r0
 22c:	30 7f       	andi	r19, 0xF0	; 240
 22e:	7f 00       	.word	0x007f	; ????
 230:	63 77       	andi	r22, 0x73	; 115
 232:	1c 08       	sbc	r1, r12
 234:	1c 77       	andi	r17, 0x7C	; 124
 236:	63 00       	.word	0x0063	; ????
 238:	07 4f       	sbci	r16, 0xF7	; 247
 23a:	78 78       	andi	r23, 0x88	; 136
 23c:	4f 07       	cpc	r20, r31
 23e:	00 00       	nop
 240:	67 73       	andi	r22, 0x37	; 55
 242:	59 4d       	sbci	r21, 0xD9	; 217
 244:	47 63       	ori	r20, 0x37	; 55
 246:	71 00       	.word	0x0071	; ????
 248:	00 7f       	andi	r16, 0xF0	; 240
 24a:	7f 41       	sbci	r23, 0x1F	; 31
 24c:	41 00       	.word	0x0041	; ????
 24e:	00 00       	nop
 250:	01 03       	mulsu	r16, r17
 252:	06 0c       	add	r0, r6
 254:	18 30       	cpi	r17, 0x08	; 8
 256:	60 00       	.word	0x0060	; ????
 258:	00 41       	sbci	r16, 0x10	; 16
 25a:	41 7f       	andi	r20, 0xF1	; 241
 25c:	7f 00       	.word	0x007f	; ????
 25e:	00 00       	nop
 260:	08 0c       	add	r0, r8
 262:	06 03       	mulsu	r16, r22
 264:	06 0c       	add	r0, r6
 266:	08 00       	.word	0x0008	; ????
 268:	80 80       	ld	r8, Z
 26a:	80 80       	ld	r8, Z
 26c:	80 80       	ld	r8, Z
 26e:	80 80       	ld	r8, Z
 270:	00 00       	nop
 272:	03 07       	cpc	r16, r19
 274:	04 00       	.word	0x0004	; ????
 276:	00 00       	nop
 278:	20 74       	andi	r18, 0x40	; 64
 27a:	54 54       	subi	r21, 0x44	; 68
 27c:	3c 78       	andi	r19, 0x8C	; 140
 27e:	40 00       	.word	0x0040	; ????
 280:	41 3f       	cpi	r20, 0xF1	; 241
 282:	7f 44       	sbci	r23, 0x4F	; 79
 284:	44 7c       	andi	r20, 0xC4	; 196
 286:	38 00       	.word	0x0038	; ????
 288:	38 7c       	andi	r19, 0xC8	; 200
 28a:	44 44       	sbci	r20, 0x44	; 68
 28c:	6c 28       	or	r6, r12
 28e:	00 00       	nop
 290:	30 78       	andi	r19, 0x80	; 128
 292:	48 49       	sbci	r20, 0x98	; 152
 294:	3f 7f       	andi	r19, 0xFF	; 255
 296:	40 00       	.word	0x0040	; ????
 298:	38 7c       	andi	r19, 0xC8	; 200
 29a:	54 54       	subi	r21, 0x44	; 68
 29c:	5c 18       	sub	r5, r12
 29e:	00 00       	nop
 2a0:	48 7e       	andi	r20, 0xE8	; 232
 2a2:	7f 49       	sbci	r23, 0x9F	; 159
 2a4:	03 02       	muls	r16, r19
 2a6:	00 00       	nop
 2a8:	98 bc       	out	0x28, r9	; 40
 2aa:	a4 a4       	ldd	r10, Z+44	; 0x2c
 2ac:	f8 7c       	andi	r31, 0xC8	; 200
 2ae:	04 00       	.word	0x0004	; ????
 2b0:	41 7f       	andi	r20, 0xF1	; 241
 2b2:	7f 08       	sbc	r7, r15
 2b4:	04 7c       	andi	r16, 0xC4	; 196
 2b6:	78 00       	.word	0x0078	; ????
 2b8:	00 44       	sbci	r16, 0x40	; 64
 2ba:	7d 7d       	andi	r23, 0xDD	; 221
 2bc:	40 00       	.word	0x0040	; ????
 2be:	00 00       	nop
 2c0:	40 c4       	rjmp	.+2176   	; 0xb42 <__data_load_end+0x386>
 2c2:	84 fd       	sbrc	r24, 4
 2c4:	7d 00       	.word	0x007d	; ????
 2c6:	00 00       	nop
 2c8:	41 7f       	andi	r20, 0xF1	; 241
 2ca:	7f 10       	cpse	r7, r15
 2cc:	38 6c       	ori	r19, 0xC8	; 200
 2ce:	44 00       	.word	0x0044	; ????
 2d0:	00 41       	sbci	r16, 0x10	; 16
 2d2:	7f 7f       	andi	r23, 0xFF	; 255
 2d4:	40 00       	.word	0x0040	; ????
 2d6:	00 00       	nop
 2d8:	7c 7c       	andi	r23, 0xCC	; 204
 2da:	0c 18       	sub	r0, r12
 2dc:	0c 7c       	andi	r16, 0xCC	; 204
 2de:	78 00       	.word	0x0078	; ????
 2e0:	7c 7c       	andi	r23, 0xCC	; 204
 2e2:	04 04       	cpc	r0, r4
 2e4:	7c 78       	andi	r23, 0x8C	; 140
 2e6:	00 00       	nop
 2e8:	38 7c       	andi	r19, 0xC8	; 200
 2ea:	44 44       	sbci	r20, 0x44	; 68
 2ec:	7c 38       	cpi	r23, 0x8C	; 140
 2ee:	00 00       	nop
 2f0:	84 fc       	sbrc	r8, 4
 2f2:	f8 a4       	ldd	r15, Y+40	; 0x28
 2f4:	24 3c       	cpi	r18, 0xC4	; 196
 2f6:	18 00       	.word	0x0018	; ????
 2f8:	18 3c       	cpi	r17, 0xC8	; 200
 2fa:	24 a4       	ldd	r2, Z+44	; 0x2c
 2fc:	f8 fc       	.word	0xfcf8	; ????
 2fe:	84 00       	.word	0x0084	; ????
 300:	44 7c       	andi	r20, 0xC4	; 196
 302:	78 44       	sbci	r23, 0x48	; 72
 304:	1c 18       	sub	r1, r12
 306:	00 00       	nop
 308:	48 5c       	subi	r20, 0xC8	; 200
 30a:	54 54       	subi	r21, 0x44	; 68
 30c:	74 24       	eor	r7, r4
 30e:	00 00       	nop
 310:	00 04       	cpc	r0, r0
 312:	3e 7f       	andi	r19, 0xFE	; 254
 314:	44 24       	eor	r4, r4
 316:	00 00       	nop
 318:	3c 7c       	andi	r19, 0xCC	; 204
 31a:	40 40       	sbci	r20, 0x00	; 0
 31c:	3c 7c       	andi	r19, 0xCC	; 204
 31e:	40 00       	.word	0x0040	; ????
 320:	1c 3c       	cpi	r17, 0xCC	; 204
 322:	60 60       	ori	r22, 0x00	; 0
 324:	3c 1c       	adc	r3, r12
 326:	00 00       	nop
 328:	3c 7c       	andi	r19, 0xCC	; 204
 32a:	60 30       	cpi	r22, 0x00	; 0
 32c:	60 7c       	andi	r22, 0xC0	; 192
 32e:	3c 00       	.word	0x003c	; ????
 330:	44 6c       	ori	r20, 0xC4	; 196
 332:	38 10       	cpse	r3, r8
 334:	38 6c       	ori	r19, 0xC8	; 200
 336:	44 00       	.word	0x0044	; ????
 338:	9c bc       	out	0x2c, r9	; 44
 33a:	a0 a0       	ldd	r10, Z+32	; 0x20
 33c:	fc 7c       	andi	r31, 0xCC	; 204
 33e:	00 00       	nop
 340:	4c 64       	ori	r20, 0x4C	; 76
 342:	74 5c       	subi	r23, 0xC4	; 196
 344:	4c 64       	ori	r20, 0x4C	; 76
 346:	00 00       	nop
 348:	08 08       	sbc	r0, r8
 34a:	3e 77       	andi	r19, 0x7E	; 126
 34c:	41 41       	sbci	r20, 0x11	; 17
 34e:	00 00       	nop
 350:	00 00       	nop
 352:	00 77       	andi	r16, 0x70	; 112
 354:	77 00       	.word	0x0077	; ????
 356:	00 00       	nop
 358:	41 41       	sbci	r20, 0x11	; 17
 35a:	77 3e       	cpi	r23, 0xE7	; 231
 35c:	08 08       	sbc	r0, r8
 35e:	00 00       	nop
 360:	02 03       	mulsu	r16, r18
 362:	01 03       	mulsu	r16, r17
 364:	02 03       	mulsu	r16, r18
 366:	01 00       	.word	0x0001	; ????

00000368 <__ctors_end>:
 368:	11 24       	eor	r1, r1
 36a:	1f be       	out	0x3f, r1	; 63
 36c:	cf ef       	ldi	r28, 0xFF	; 255
 36e:	d4 e0       	ldi	r29, 0x04	; 4
 370:	de bf       	out	0x3e, r29	; 62
 372:	cd bf       	out	0x3d, r28	; 61

00000374 <__do_copy_data>:
 374:	12 e0       	ldi	r17, 0x02	; 2
 376:	a0 e0       	ldi	r26, 0x00	; 0
 378:	b1 e0       	ldi	r27, 0x01	; 1
 37a:	ea e8       	ldi	r30, 0x8A	; 138
 37c:	f6 e0       	ldi	r31, 0x06	; 6
 37e:	02 c0       	rjmp	.+4      	; 0x384 <__do_copy_data+0x10>
 380:	05 90       	lpm	r0, Z+
 382:	0d 92       	st	X+, r0
 384:	a2 33       	cpi	r26, 0x32	; 50
 386:	b1 07       	cpc	r27, r17
 388:	d9 f7       	brne	.-10     	; 0x380 <__do_copy_data+0xc>

0000038a <__do_clear_bss>:
 38a:	22 e0       	ldi	r18, 0x02	; 2
 38c:	a2 e3       	ldi	r26, 0x32	; 50
 38e:	b2 e0       	ldi	r27, 0x02	; 2
 390:	01 c0       	rjmp	.+2      	; 0x394 <.do_clear_bss_start>

00000392 <.do_clear_bss_loop>:
 392:	1d 92       	st	X+, r1

00000394 <.do_clear_bss_start>:
 394:	a8 33       	cpi	r26, 0x38	; 56
 396:	b2 07       	cpc	r27, r18
 398:	e1 f7       	brne	.-8      	; 0x392 <.do_clear_bss_loop>
 39a:	0e 94 e7 02 	call	0x5ce	; 0x5ce <main>
 39e:	0c 94 43 03 	jmp	0x686	; 0x686 <_exit>

000003a2 <__bad_interrupt>:
 3a2:	0c 94 00 00 	jmp	0	; 0x0 <__vectors>

000003a6 <USART_Transmit>:
			printf("Retrieval phase error: ext_ram[%4d] = %02X (should be %02X)\n", i, retreived_value, some_value);
			retrieval_errors++;
		}
	}
	printf("SRAM test completed with \n%4d errors in write phase and \n%4d errors in retrieval phase\n\n", write_errors, retrieval_errors);
}
 3a6:	5d 9b       	sbis	0x0b, 5	; 11
 3a8:	fe cf       	rjmp	.-4      	; 0x3a6 <USART_Transmit>
 3aa:	8c b9       	out	0x0c, r24	; 12
 3ac:	08 95       	ret

000003ae <USART_Receive>:
 3ae:	5f 9b       	sbis	0x0b, 7	; 11
 3b0:	fe cf       	rjmp	.-4      	; 0x3ae <USART_Receive>
 3b2:	8c b1       	in	r24, 0x0c	; 12
 3b4:	08 95       	ret

000003b6 <OLED_send_command>:
 3b6:	97 b1       	in	r25, 0x07	; 7
 3b8:	17 b8       	out	0x07, r1	; 7
 3ba:	80 93 00 10 	sts	0x1000, r24	; 0x801000 <__bss_end+0xdc8>
 3be:	08 95       	ret

000003c0 <OLED_goto_line>:
 3c0:	88 30       	cpi	r24, 0x08	; 8
 3c2:	18 f4       	brcc	.+6      	; 0x3ca <OLED_goto_line+0xa>
 3c4:	80 55       	subi	r24, 0x50	; 80
 3c6:	0e 94 db 01 	call	0x3b6	; 0x3b6 <OLED_send_command>
 3ca:	08 95       	ret

000003cc <OLED_goto_column>:
 3cc:	cf 93       	push	r28
 3ce:	88 23       	and	r24, r24
 3d0:	54 f0       	brlt	.+20     	; 0x3e6 <OLED_goto_column+0x1a>
 3d2:	c8 2f       	mov	r28, r24
 3d4:	c2 95       	swap	r28
 3d6:	cf 70       	andi	r28, 0x0F	; 15
 3d8:	8f 70       	andi	r24, 0x0F	; 15
 3da:	0e 94 db 01 	call	0x3b6	; 0x3b6 <OLED_send_command>
 3de:	80 e1       	ldi	r24, 0x10	; 16
 3e0:	8c 0f       	add	r24, r28
 3e2:	0e 94 db 01 	call	0x3b6	; 0x3b6 <OLED_send_command>
 3e6:	cf 91       	pop	r28
 3e8:	08 95       	ret

000003ea <OLED_pos>:
 3ea:	cf 93       	push	r28
 3ec:	c6 2f       	mov	r28, r22
 3ee:	0e 94 e0 01 	call	0x3c0	; 0x3c0 <OLED_goto_line>
 3f2:	8c 2f       	mov	r24, r28
 3f4:	0e 94 e6 01 	call	0x3cc	; 0x3cc <OLED_goto_column>
 3f8:	cf 91       	pop	r28
 3fa:	08 95       	ret

000003fc <OLED_home>:
 3fc:	80 e0       	ldi	r24, 0x00	; 0
 3fe:	0e 94 e0 01 	call	0x3c0	; 0x3c0 <OLED_goto_line>
 402:	80 e0       	ldi	r24, 0x00	; 0
 404:	0e 94 e6 01 	call	0x3cc	; 0x3cc <OLED_goto_column>
 408:	08 95       	ret

0000040a <OLED_send_data>:
 40a:	97 b1       	in	r25, 0x07	; 7
 40c:	94 60       	ori	r25, 0x04	; 4
 40e:	97 b9       	out	0x07, r25	; 7
 410:	80 93 00 12 	sts	0x1200, r24	; 0x801200 <__bss_end+0xfc8>
 414:	08 95       	ret

00000416 <OLED_print_char>:
 416:	1f 93       	push	r17
 418:	cf 93       	push	r28
 41a:	df 93       	push	r29
 41c:	18 2f       	mov	r17, r24
 41e:	c0 e0       	ldi	r28, 0x00	; 0
 420:	d0 e0       	ldi	r29, 0x00	; 0
 422:	11 c0       	rjmp	.+34     	; 0x446 <OLED_print_char+0x30>
 424:	e1 2f       	mov	r30, r17
 426:	f0 e0       	ldi	r31, 0x00	; 0
 428:	b0 97       	sbiw	r30, 0x20	; 32
 42a:	ee 0f       	add	r30, r30
 42c:	ff 1f       	adc	r31, r31
 42e:	ee 0f       	add	r30, r30
 430:	ff 1f       	adc	r31, r31
 432:	ee 0f       	add	r30, r30
 434:	ff 1f       	adc	r31, r31
 436:	ec 0f       	add	r30, r28
 438:	fd 1f       	adc	r31, r29
 43a:	e0 59       	subi	r30, 0x90	; 144
 43c:	ff 4f       	sbci	r31, 0xFF	; 255
 43e:	84 91       	lpm	r24, Z
 440:	0e 94 05 02 	call	0x40a	; 0x40a <OLED_send_data>
 444:	21 96       	adiw	r28, 0x01	; 1
 446:	c8 30       	cpi	r28, 0x08	; 8
 448:	d1 05       	cpc	r29, r1
 44a:	64 f3       	brlt	.-40     	; 0x424 <OLED_print_char+0xe>
 44c:	df 91       	pop	r29
 44e:	cf 91       	pop	r28
 450:	1f 91       	pop	r17
 452:	08 95       	ret

00000454 <OLED_print>:
 454:	ef 92       	push	r14
 456:	ff 92       	push	r15
 458:	0f 93       	push	r16
 45a:	1f 93       	push	r17
 45c:	cf 93       	push	r28
 45e:	df 93       	push	r29
 460:	7c 01       	movw	r14, r24
 462:	8b 01       	movw	r16, r22
 464:	c0 e0       	ldi	r28, 0x00	; 0
 466:	d0 e0       	ldi	r29, 0x00	; 0
 468:	07 c0       	rjmp	.+14     	; 0x478 <OLED_print+0x24>
 46a:	f7 01       	movw	r30, r14
 46c:	ec 0f       	add	r30, r28
 46e:	fd 1f       	adc	r31, r29
 470:	80 81       	ld	r24, Z
 472:	0e 94 0b 02 	call	0x416	; 0x416 <OLED_print_char>
 476:	21 96       	adiw	r28, 0x01	; 1
 478:	c0 17       	cp	r28, r16
 47a:	d1 07       	cpc	r29, r17
 47c:	b4 f3       	brlt	.-20     	; 0x46a <OLED_print+0x16>
 47e:	df 91       	pop	r29
 480:	cf 91       	pop	r28
 482:	1f 91       	pop	r17
 484:	0f 91       	pop	r16
 486:	ff 90       	pop	r15
 488:	ef 90       	pop	r14
 48a:	08 95       	ret

0000048c <OLED_clear_line>:
 48c:	cf 93       	push	r28
 48e:	df 93       	push	r29
 490:	0e 94 e0 01 	call	0x3c0	; 0x3c0 <OLED_goto_line>
 494:	c0 e0       	ldi	r28, 0x00	; 0
 496:	d0 e0       	ldi	r29, 0x00	; 0
 498:	04 c0       	rjmp	.+8      	; 0x4a2 <OLED_clear_line+0x16>
 49a:	80 e0       	ldi	r24, 0x00	; 0
 49c:	0e 94 05 02 	call	0x40a	; 0x40a <OLED_send_data>
 4a0:	21 96       	adiw	r28, 0x01	; 1
 4a2:	c0 38       	cpi	r28, 0x80	; 128
 4a4:	d1 05       	cpc	r29, r1
 4a6:	cc f3       	brlt	.-14     	; 0x49a <OLED_clear_line+0xe>
 4a8:	df 91       	pop	r29
 4aa:	cf 91       	pop	r28
 4ac:	08 95       	ret

000004ae <OLED_reset>:
 4ae:	cf 93       	push	r28
 4b0:	df 93       	push	r29
 4b2:	c0 e0       	ldi	r28, 0x00	; 0
 4b4:	d0 e0       	ldi	r29, 0x00	; 0
 4b6:	04 c0       	rjmp	.+8      	; 0x4c0 <OLED_reset+0x12>
 4b8:	8c 2f       	mov	r24, r28
 4ba:	0e 94 46 02 	call	0x48c	; 0x48c <OLED_clear_line>
 4be:	21 96       	adiw	r28, 0x01	; 1
 4c0:	c8 30       	cpi	r28, 0x08	; 8
 4c2:	d1 05       	cpc	r29, r1
 4c4:	cc f3       	brlt	.-14     	; 0x4b8 <OLED_reset+0xa>
 4c6:	0e 94 fe 01 	call	0x3fc	; 0x3fc <OLED_home>
 4ca:	df 91       	pop	r29
 4cc:	cf 91       	pop	r28
 4ce:	08 95       	ret

000004d0 <OLED_Init>:
 4d0:	8e ea       	ldi	r24, 0xAE	; 174
 4d2:	0e 94 db 01 	call	0x3b6	; 0x3b6 <OLED_send_command>
 4d6:	81 ea       	ldi	r24, 0xA1	; 161
 4d8:	0e 94 db 01 	call	0x3b6	; 0x3b6 <OLED_send_command>
 4dc:	8a ed       	ldi	r24, 0xDA	; 218
 4de:	0e 94 db 01 	call	0x3b6	; 0x3b6 <OLED_send_command>
 4e2:	82 e1       	ldi	r24, 0x12	; 18
 4e4:	0e 94 db 01 	call	0x3b6	; 0x3b6 <OLED_send_command>
 4e8:	88 ec       	ldi	r24, 0xC8	; 200
 4ea:	0e 94 db 01 	call	0x3b6	; 0x3b6 <OLED_send_command>
 4ee:	88 ea       	ldi	r24, 0xA8	; 168
 4f0:	0e 94 db 01 	call	0x3b6	; 0x3b6 <OLED_send_command>
 4f4:	8f e3       	ldi	r24, 0x3F	; 63
 4f6:	0e 94 db 01 	call	0x3b6	; 0x3b6 <OLED_send_command>
 4fa:	85 ed       	ldi	r24, 0xD5	; 213
 4fc:	0e 94 db 01 	call	0x3b6	; 0x3b6 <OLED_send_command>
 500:	80 e8       	ldi	r24, 0x80	; 128
 502:	0e 94 db 01 	call	0x3b6	; 0x3b6 <OLED_send_command>
 506:	81 e8       	ldi	r24, 0x81	; 129
 508:	0e 94 db 01 	call	0x3b6	; 0x3b6 <OLED_send_command>
 50c:	80 e5       	ldi	r24, 0x50	; 80
 50e:	0e 94 db 01 	call	0x3b6	; 0x3b6 <OLED_send_command>
 512:	89 ed       	ldi	r24, 0xD9	; 217
 514:	0e 94 db 01 	call	0x3b6	; 0x3b6 <OLED_send_command>
 518:	81 e2       	ldi	r24, 0x21	; 33
 51a:	0e 94 db 01 	call	0x3b6	; 0x3b6 <OLED_send_command>
 51e:	80 e2       	ldi	r24, 0x20	; 32
 520:	0e 94 db 01 	call	0x3b6	; 0x3b6 <OLED_send_command>
 524:	82 e0       	ldi	r24, 0x02	; 2
 526:	0e 94 db 01 	call	0x3b6	; 0x3b6 <OLED_send_command>
 52a:	8b ed       	ldi	r24, 0xDB	; 219
 52c:	0e 94 db 01 	call	0x3b6	; 0x3b6 <OLED_send_command>
 530:	80 e3       	ldi	r24, 0x30	; 48
 532:	0e 94 db 01 	call	0x3b6	; 0x3b6 <OLED_send_command>
 536:	8d ea       	ldi	r24, 0xAD	; 173
 538:	0e 94 db 01 	call	0x3b6	; 0x3b6 <OLED_send_command>
 53c:	80 e0       	ldi	r24, 0x00	; 0
 53e:	0e 94 db 01 	call	0x3b6	; 0x3b6 <OLED_send_command>
 542:	84 ea       	ldi	r24, 0xA4	; 164
 544:	0e 94 db 01 	call	0x3b6	; 0x3b6 <OLED_send_command>
 548:	86 ea       	ldi	r24, 0xA6	; 166
 54a:	0e 94 db 01 	call	0x3b6	; 0x3b6 <OLED_send_command>
 54e:	8f ea       	ldi	r24, 0xAF	; 175
 550:	0e 94 db 01 	call	0x3b6	; 0x3b6 <OLED_send_command>
 554:	08 95       	ret

00000556 <screen1>:
 556:	cf 93       	push	r28
 558:	0e 94 57 02 	call	0x4ae	; 0x4ae <OLED_reset>
 55c:	c0 e0       	ldi	r28, 0x00	; 0
 55e:	0f c0       	rjmp	.+30     	; 0x57e <screen1+0x28>
 560:	6a e0       	ldi	r22, 0x0A	; 10
 562:	8c 2f       	mov	r24, r28
 564:	0e 94 f5 01 	call	0x3ea	; 0x3ea <OLED_pos>
 568:	67 e0       	ldi	r22, 0x07	; 7
 56a:	70 e0       	ldi	r23, 0x00	; 0
 56c:	8b e2       	ldi	r24, 0x2B	; 43
 56e:	91 e0       	ldi	r25, 0x01	; 1
 570:	0e 94 2a 02 	call	0x454	; 0x454 <OLED_print>
 574:	81 e3       	ldi	r24, 0x31	; 49
 576:	8c 0f       	add	r24, r28
 578:	0e 94 0b 02 	call	0x416	; 0x416 <OLED_print_char>
 57c:	cf 5f       	subi	r28, 0xFF	; 255
 57e:	c8 30       	cpi	r28, 0x08	; 8
 580:	78 f3       	brcs	.-34     	; 0x560 <screen1+0xa>
 582:	cf 91       	pop	r28
 584:	08 95       	ret

00000586 <USART_Init>:
 586:	90 bd       	out	0x20, r25	; 32
 588:	89 b9       	out	0x09, r24	; 9
 58a:	88 e1       	ldi	r24, 0x18	; 24
 58c:	8a b9       	out	0x0a, r24	; 10
 58e:	8e ea       	ldi	r24, 0xAE	; 174
 590:	80 bd       	out	0x20, r24	; 32
 592:	08 95       	ret

00000594 <SRAM_Init>:

void SRAM_Init(void) {
	// Enable external memory interface
	MCUCR |= (1 << SRE);
 594:	85 b7       	in	r24, 0x35	; 53
 596:	80 68       	ori	r24, 0x80	; 128
 598:	85 bf       	out	0x35, r24	; 53
	// Mask PC7-PC4
	SFIOR |= (1 << XMM2);
 59a:	80 b7       	in	r24, 0x30	; 48
 59c:	80 62       	ori	r24, 0x20	; 32
 59e:	80 bf       	out	0x30, r24	; 48
 5a0:	08 95       	ret

000005a2 <CLK_Init>:
}

void CLK_Init(int TOP) {
 5a2:	9c 01       	movw	r18, r24
	// Set PD4 as output
	DDRD |= (1 << DDD4);
 5a4:	91 b3       	in	r25, 0x11	; 17
 5a6:	90 61       	ori	r25, 0x10	; 16
 5a8:	91 bb       	out	0x11, r25	; 17
	
	// Compare output mode: Toggle compare match
	TCCR3A |= (1 << COM3A0); 
 5aa:	eb e8       	ldi	r30, 0x8B	; 139
 5ac:	f0 e0       	ldi	r31, 0x00	; 0
 5ae:	90 81       	ld	r25, Z
 5b0:	90 64       	ori	r25, 0x40	; 64
 5b2:	90 83       	st	Z, r25
	
	// Mode 4, CTC
	TCCR3B |= (1 << WGM32);
 5b4:	ea e8       	ldi	r30, 0x8A	; 138
 5b6:	f0 e0       	ldi	r31, 0x00	; 0
 5b8:	90 81       	ld	r25, Z
 5ba:	98 60       	ori	r25, 0x08	; 8
 5bc:	90 83       	st	Z, r25
	
	// Set counter TOP value
	OCR3A = TOP;
 5be:	30 93 87 00 	sts	0x0087, r19	; 0x800087 <__TEXT_REGION_LENGTH__+0x7fc087>
 5c2:	20 93 86 00 	sts	0x0086, r18	; 0x800086 <__TEXT_REGION_LENGTH__+0x7fc086>
	
	// Prescaler 1
	TCCR3B |= (1 << CS30);
 5c6:	80 81       	ld	r24, Z
 5c8:	81 60       	ori	r24, 0x01	; 1
 5ca:	80 83       	st	Z, r24
 5cc:	08 95       	ret

000005ce <main>:
int offset_x = 0;
int offset_y = 0;

int main(void)
{
	DDRA = 0xFF;
 5ce:	8f ef       	ldi	r24, 0xFF	; 255
 5d0:	8a bb       	out	0x1a, r24	; 26
	DDRE |= (0x02);
 5d2:	86 b1       	in	r24, 0x06	; 6
 5d4:	82 60       	ori	r24, 0x02	; 2
 5d6:	86 b9       	out	0x06, r24	; 6
	
	// Joystick button inputs
	DDRD &= !( (1 << PD2) | (1 << PD3) );
 5d8:	81 b3       	in	r24, 0x11	; 17
 5da:	11 ba       	out	0x11, r1	; 17
	// Data/!Command output
	DDRE |= (1 << PE2);
 5dc:	86 b1       	in	r24, 0x06	; 6
 5de:	84 60       	ori	r24, 0x04	; 4
 5e0:	86 b9       	out	0x06, r24	; 6
	// Joystick button
	DDRE &= !(1 << PE0);
 5e2:	86 b1       	in	r24, 0x06	; 6
 5e4:	16 b8       	out	0x06, r1	; 6
	
	USART_Init(MYUBRR);
 5e6:	8f e1       	ldi	r24, 0x1F	; 31
 5e8:	90 e0       	ldi	r25, 0x00	; 0
 5ea:	0e 94 c3 02 	call	0x586	; 0x586 <USART_Init>
	CLK_Init(0);
 5ee:	80 e0       	ldi	r24, 0x00	; 0
 5f0:	90 e0       	ldi	r25, 0x00	; 0
 5f2:	0e 94 d1 02 	call	0x5a2	; 0x5a2 <CLK_Init>
	SRAM_Init();
 5f6:	0e 94 ca 02 	call	0x594	; 0x594 <SRAM_Init>
	OLED_Init();
 5fa:	0e 94 68 02 	call	0x4d0	; 0x4d0 <OLED_Init>
	
	// Setup for printf
	stdout = &uart_stdio;
 5fe:	e2 e3       	ldi	r30, 0x32	; 50
 600:	f2 e0       	ldi	r31, 0x02	; 2
 602:	80 e0       	ldi	r24, 0x00	; 0
 604:	91 e0       	ldi	r25, 0x01	; 1
 606:	93 83       	std	Z+3, r25	; 0x03
 608:	82 83       	std	Z+2, r24	; 0x02
	stdin = &uart_stdio;
 60a:	91 83       	std	Z+1, r25	; 0x01
 60c:	80 83       	st	Z, r24
	char min_pos = 0;
	char max_pos = 0;
	char screen = 0;
	char prev_screen = 1;
	
	OLED_send_command(0xA6);
 60e:	86 ea       	ldi	r24, 0xA6	; 166
 610:	0e 94 db 01 	call	0x3b6	; 0x3b6 <OLED_send_command>
	OLED_reset();
 614:	0e 94 57 02 	call	0x4ae	; 0x4ae <OLED_reset>
	screen1();
 618:	0e 94 ab 02 	call	0x556	; 0x556 <screen1>
	
	
	
    while (1) {
		printf("a\n");
 61c:	8f e2       	ldi	r24, 0x2F	; 47
 61e:	92 e0       	ldi	r25, 0x02	; 2
 620:	0e 94 13 03 	call	0x626	; 0x626 <puts>
 624:	fb cf       	rjmp	.-10     	; 0x61c <main+0x4e>

00000626 <puts>:
 626:	0f 93       	push	r16
 628:	1f 93       	push	r17
 62a:	cf 93       	push	r28
 62c:	df 93       	push	r29
 62e:	e0 91 34 02 	lds	r30, 0x0234	; 0x800234 <__data_end+0x2>
 632:	f0 91 35 02 	lds	r31, 0x0235	; 0x800235 <__data_end+0x3>
 636:	23 81       	ldd	r18, Z+3	; 0x03
 638:	21 ff       	sbrs	r18, 1
 63a:	1b c0       	rjmp	.+54     	; 0x672 <puts+0x4c>
 63c:	8c 01       	movw	r16, r24
 63e:	d0 e0       	ldi	r29, 0x00	; 0
 640:	c0 e0       	ldi	r28, 0x00	; 0
 642:	f8 01       	movw	r30, r16
 644:	81 91       	ld	r24, Z+
 646:	8f 01       	movw	r16, r30
 648:	60 91 34 02 	lds	r22, 0x0234	; 0x800234 <__data_end+0x2>
 64c:	70 91 35 02 	lds	r23, 0x0235	; 0x800235 <__data_end+0x3>
 650:	db 01       	movw	r26, r22
 652:	18 96       	adiw	r26, 0x08	; 8
 654:	ed 91       	ld	r30, X+
 656:	fc 91       	ld	r31, X
 658:	19 97       	sbiw	r26, 0x09	; 9
 65a:	88 23       	and	r24, r24
 65c:	31 f0       	breq	.+12     	; 0x66a <puts+0x44>
 65e:	09 95       	icall
 660:	89 2b       	or	r24, r25
 662:	79 f3       	breq	.-34     	; 0x642 <puts+0x1c>
 664:	df ef       	ldi	r29, 0xFF	; 255
 666:	cf ef       	ldi	r28, 0xFF	; 255
 668:	ec cf       	rjmp	.-40     	; 0x642 <puts+0x1c>
 66a:	8a e0       	ldi	r24, 0x0A	; 10
 66c:	09 95       	icall
 66e:	89 2b       	or	r24, r25
 670:	19 f0       	breq	.+6      	; 0x678 <puts+0x52>
 672:	8f ef       	ldi	r24, 0xFF	; 255
 674:	9f ef       	ldi	r25, 0xFF	; 255
 676:	02 c0       	rjmp	.+4      	; 0x67c <puts+0x56>
 678:	8d 2f       	mov	r24, r29
 67a:	9c 2f       	mov	r25, r28
 67c:	df 91       	pop	r29
 67e:	cf 91       	pop	r28
 680:	1f 91       	pop	r17
 682:	0f 91       	pop	r16
 684:	08 95       	ret

00000686 <_exit>:
 686:	f8 94       	cli

00000688 <__stop_program>:
 688:	ff cf       	rjmp	.-2      	; 0x688 <__stop_program>
